target datalayout = "e-m:e-p270:32:32-p271:32:32-p272:64:64-i64:64-i128:128-f80:128-n8:16:32:64-S128"
target triple = "x86_64-unknown-linux-gnu"

%struct.uv_buf_t = type { ptr, i64 }
%"class.node::StreamResource" = type { ptr, ptr, i64, i64 }
%"class.node::DebugSealHandleScope" = type { i8 }

; Function Attrs: mustprogress nounwind uwtable
define linkonce_odr dso_local void @_ZN4node20DebugSealHandleScopeC2EPN2v87IsolateE(ptr noundef nonnull align 1 dereferenceable(1) %this, ptr noundef %isolate) unnamed_addr #4 comdat align 2 {
entry:
  %this.addr = alloca ptr, align 8
  %isolate.addr = alloca ptr, align 8
  store ptr %this, ptr %this.addr, align 8
  store ptr %isolate, ptr %isolate.addr, align 8
  ret void
}

; Function Attrs: mustprogress nounwind uwtable
define linkonce_odr dso_local void @_ZN4node14StreamResource8EmitReadElRK8uv_buf_t(ptr noundef nonnull align 8 dereferenceable(32) %this, i64 noundef %nread, ptr noundef nonnull align 8 dereferenceable(16) %buf) #4 comdat align 2 {
entry:
  %this.addr = alloca ptr, align 8
  %nread.addr = alloca i64, align 8
  %buf.addr = alloca ptr, align 8
  %seal_handle_scope = alloca %"class.node::DebugSealHandleScope", align 1
  store ptr %this, ptr %this.addr, align 8
  store i64 %nread, ptr %nread.addr, align 8
  store ptr %buf, ptr %buf.addr, align 8
  %this1 = load ptr, ptr %this.addr, align 8
  call void @_ZN4node20DebugSealHandleScopeC2EPN2v87IsolateE(ptr noundef nonnull align 1 dereferenceable(1) %seal_handle_scope, ptr noundef null)
  %0 = load i64, ptr %nread.addr, align 8
  %cmp = icmp sgt i64 %0, 0
  br i1 %cmp, label %if.then, label %if.end

if.then:                                          ; preds = %entry
  %1 = load i64, ptr %nread.addr, align 8
  %bytes_read_ = getelementptr inbounds %"class.node::StreamResource", ptr %this1, i32 0, i32 2
  %2 = load i64, ptr %bytes_read_, align 8
  %add = add i64 %2, %1
  store i64 %add, ptr %bytes_read_, align 8
  br label %if.end

if.end:                                           ; preds = %if.then, %entry
  %listener_ = getelementptr inbounds %"class.node::StreamResource", ptr %this1, i32 0, i32 1
  %3 = load ptr, ptr %listener_, align 8
  %4 = load i64, ptr %nread.addr, align 8
  %5 = load ptr, ptr %buf.addr, align 8
  %vtable = load ptr, ptr %3, align 8
  %vfn = getelementptr inbounds ptr, ptr %vtable, i64 3
  %6 = load ptr, ptr %vfn, align 8
  call void %6(ptr noundef nonnull align 8 dereferenceable(24) %3, i64 noundef %4, ptr noundef nonnull align 8 dereferenceable(16) %5)
  ret void
}

; Function Attrs: mustprogress nounwind uwtable
define linkonce_odr dso_local { ptr, i64 } @_ZN4node14StreamResource9EmitAllocEm(ptr noundef nonnull align 8 dereferenceable(32) %this, i64 noundef %suggested_size) #4 comdat align 2 {
entry:
  %retval = alloca %struct.uv_buf_t, align 8
  %this.addr = alloca ptr, align 8
  %suggested_size.addr = alloca i64, align 8
  %seal_handle_scope = alloca %"class.node::DebugSealHandleScope", align 1
  store ptr %this, ptr %this.addr, align 8
  store i64 %suggested_size, ptr %suggested_size.addr, align 8
  %this1 = load ptr, ptr %this.addr, align 8
  call void @_ZN4node20DebugSealHandleScopeC2EPN2v87IsolateE(ptr noundef nonnull align 1 dereferenceable(1) %seal_handle_scope, ptr noundef null)
  %listener_ = getelementptr inbounds %"class.node::StreamResource", ptr %this1, i32 0, i32 1
  %0 = load ptr, ptr %listener_, align 8
  %1 = load i64, ptr %suggested_size.addr, align 8
  %vtable = load ptr, ptr %0, align 8
  %vfn = getelementptr inbounds ptr, ptr %vtable, i64 2
  %2 = load ptr, ptr %vfn, align 8
  %call = call { ptr, i64 } %2(ptr noundef nonnull align 8 dereferenceable(24) %0, i64 noundef %1)
  %3 = getelementptr inbounds { ptr, i64 }, ptr %retval, i32 0, i32 0
  %4 = extractvalue { ptr, i64 } %call, 0
  store ptr %4, ptr %3, align 8
  %5 = getelementptr inbounds { ptr, i64 }, ptr %retval, i32 0, i32 1
  %6 = extractvalue { ptr, i64 } %call, 1
  store i64 %6, ptr %5, align 8
  %7 = load { ptr, i64 }, ptr %retval, align 8
  ret { ptr, i64 } %7
}

; Function Attrs: mustprogress nounwind uwtable
define internal noundef i32 @_ZN4node4heap12_GLOBAL__N_118HeapSnapshotStream15WriteAsciiChunkEPci(ptr noundef nonnull align 8 dereferenceable(136) %this, ptr noundef %data, i32 noundef %size) unnamed_addr #4 align 2 {
entry:
  %this.addr = alloca ptr, align 8
  %data.addr = alloca ptr, align 8
  %size.addr = alloca i32, align 4
  %len = alloca i32, align 4
  %buf = alloca %struct.uv_buf_t, align 8
  %avail = alloca i64, align 8
  store ptr %this, ptr %this.addr, align 8
  store ptr %data, ptr %data.addr, align 8
  store i32 %size, ptr %size.addr, align 4
  %this1 = load ptr, ptr %this.addr, align 8
  %0 = load i32, ptr %size.addr, align 4
  store i32 %0, ptr %len, align 4
  br label %while.cond

while.cond:                                       ; preds = %if.end, %entry
  %1 = load i32, ptr %len, align 4
  %cmp = icmp ne i32 %1, 0
  br i1 %cmp, label %while.body, label %while.end

while.body:                                       ; preds = %while.cond
  %add.ptr = getelementptr inbounds i8, ptr %this1, i64 56
  %2 = load i32, ptr %size.addr, align 4
  %conv = sext i32 %2 to i64
  %call = call { ptr, i64 } @_ZN4node14StreamResource9EmitAllocEm(ptr noundef nonnull align 8 dereferenceable(32) %add.ptr, i64 noundef %conv)
  %3 = getelementptr inbounds { ptr, i64 }, ptr %buf, i32 0, i32 0
  %4 = extractvalue { ptr, i64 } %call, 0
  store ptr %4, ptr %3, align 8
  %5 = getelementptr inbounds { ptr, i64 }, ptr %buf, i32 0, i32 1
  %6 = extractvalue { ptr, i64 } %call, 1
  store i64 %6, ptr %5, align 8
  %7 = load i32, ptr %len, align 4
  %conv2 = sext i32 %7 to i64
  store i64 %conv2, ptr %avail, align 8
  %len3 = getelementptr inbounds %struct.uv_buf_t, ptr %buf, i32 0, i32 1
  %8 = load i64, ptr %len3, align 8
  %9 = load i64, ptr %avail, align 8
  %cmp4 = icmp slt i64 %8, %9
  br i1 %cmp4, label %if.then, label %if.end

if.then:                                          ; preds = %while.body
  %len5 = getelementptr inbounds %struct.uv_buf_t, ptr %buf, i32 0, i32 1
  %10 = load i64, ptr %len5, align 8
  store i64 %10, ptr %avail, align 8
  br label %if.end

if.end:                                           ; preds = %if.then, %while.body
  %base = getelementptr inbounds %struct.uv_buf_t, ptr %buf, i32 0, i32 0
  %11 = load ptr, ptr %base, align 8
  %12 = load ptr, ptr %data.addr, align 8
  %13 = load i64, ptr %avail, align 8
  call void @llvm.memcpy.p0.p0.i64(ptr align 1 %11, ptr align 1 %12, i64 %13, i1 false)
  %14 = load i64, ptr %avail, align 8
  %15 = load ptr, ptr %data.addr, align 8
  %add.ptr6 = getelementptr inbounds i8, ptr %15, i64 %14
  store ptr %add.ptr6, ptr %data.addr, align 8
  %16 = load i64, ptr %avail, align 8
  %conv7 = trunc i64 %16 to i32
  %17 = load i32, ptr %len, align 4
  %sub = sub nsw i32 %17, %conv7
  store i32 %sub, ptr %len, align 4
  %add.ptr8 = getelementptr inbounds i8, ptr %this1, i64 56
  %18 = load i32, ptr %size.addr, align 4
  %conv9 = sext i32 %18 to i64
  call void @_ZN4node14StreamResource8EmitReadElRK8uv_buf_t(ptr noundef nonnull align 8 dereferenceable(32) %add.ptr8, i64 noundef %conv9, ptr noundef nonnull align 8 dereferenceable(16) %buf)
  br label %while.cond, !llvm.loop !28

while.end:                                        ; preds = %while.cond
  ret i32 0
}