; Function Attrs: mustprogress nounwind uwtable
define internal noundef i32 @_ZN4node4heap12_GLOBAL__N_118HeapSnapshotStream15WriteAsciiChunkEPci(ptr nocapture noundef nonnull align 8 dereferenceable(136) %this, ptr nocapture noundef readonly %data, i32 noundef %size) unnamed_addr #3 align 2 {
entry:
  %buf = alloca %struct.uv_buf_t, align 8
  %cmp.not12 = icmp eq i32 %size, 0
  br i1 %cmp.not12, label %while.end, label %while.body.lr.ph

while.body.lr.ph:                                 ; preds = %entry
  %conv = sext i32 %size to i64
  %listener_.i = getelementptr inbounds i8, ptr %this, i64 64
  %0 = getelementptr inbounds i8, ptr %buf, i64 8
  %cmp.i = icmp sgt i32 %size, 0
  %bytes_read_.i = getelementptr inbounds i8, ptr %this, i64 72
  br i1 %cmp.i, label %while.body.us, label %while.body

while.body.us:                                    ; preds = %while.body.lr.ph, %while.body.us
  %len.014.us = phi i32 [ %sub.us, %while.body.us ], [ %size, %while.body.lr.ph ]
  %data.addr.013.us = phi ptr [ %add.ptr6.us, %while.body.us ], [ %data, %while.body.lr.ph ]
  %1 = load ptr, ptr %listener_.i, align 8
  %vtable.i.us = load ptr, ptr %1, align 8
  %vfn.i.us = getelementptr inbounds i8, ptr %vtable.i.us, i64 16
  %2 = load ptr, ptr %vfn.i.us, align 8
  %call.i.us = call { ptr, i64 } %2(ptr noundef nonnull align 8 dereferenceable(24) %1, i64 noundef %conv) #22
  %3 = extractvalue { ptr, i64 } %call.i.us, 0
  store ptr %3, ptr %buf, align 8
  %4 = extractvalue { ptr, i64 } %call.i.us, 1
  store i64 %4, ptr %0, align 8
  %conv2.us = sext i32 %len.014.us to i64
  %spec.select.us = call i64 @llvm.smin.i64(i64 %4, i64 %conv2.us)
  call void @llvm.memcpy.p0.p0.i64(ptr align 1 %3, ptr align 1 %data.addr.013.us, i64 %spec.select.us, i1 false)
  %add.ptr6.us = getelementptr inbounds i8, ptr %data.addr.013.us, i64 %spec.select.us
  %conv7.us = trunc i64 %spec.select.us to i32
  %sub.us = sub nsw i32 %len.014.us, %conv7.us
  %5 = load i64, ptr %bytes_read_.i, align 8
  %add.i.us = add i64 %5, %conv
  store i64 %add.i.us, ptr %bytes_read_.i, align 8
  %6 = load ptr, ptr %listener_.i, align 8
  %vtable.i10.us = load ptr, ptr %6, align 8
  %vfn.i11.us = getelementptr inbounds i8, ptr %vtable.i10.us, i64 24
  %7 = load ptr, ptr %vfn.i11.us, align 8
  call void %7(ptr noundef nonnull align 8 dereferenceable(24) %6, i64 noundef %conv, ptr noundef nonnull align 8 dereferenceable(16) %buf) #22
  %cmp.not.us = icmp eq i32 %sub.us, 0
  br i1 %cmp.not.us, label %while.end, label %while.body.us, !llvm.loop !39

while.body:                                       ; preds = %while.body.lr.ph, %while.body
  %len.014 = phi i32 [ %sub, %while.body ], [ %size, %while.body.lr.ph ]
  %data.addr.013 = phi ptr [ %add.ptr6, %while.body ], [ %data, %while.body.lr.ph ]
  %8 = load ptr, ptr %listener_.i, align 8
  %vtable.i = load ptr, ptr %8, align 8
  %vfn.i = getelementptr inbounds i8, ptr %vtable.i, i64 16
  %9 = load ptr, ptr %vfn.i, align 8
  %call.i = call { ptr, i64 } %9(ptr noundef nonnull align 8 dereferenceable(24) %8, i64 noundef %conv) #22
  %10 = extractvalue { ptr, i64 } %call.i, 0
  store ptr %10, ptr %buf, align 8
  %11 = extractvalue { ptr, i64 } %call.i, 1
  store i64 %11, ptr %0, align 8
  %conv2 = sext i32 %len.014 to i64
  %spec.select = call i64 @llvm.smin.i64(i64 %11, i64 %conv2)
  call void @llvm.memcpy.p0.p0.i64(ptr align 1 %10, ptr align 1 %data.addr.013, i64 %spec.select, i1 false)
  %add.ptr6 = getelementptr inbounds i8, ptr %data.addr.013, i64 %spec.select
  %conv7 = trunc i64 %spec.select to i32
  %sub = sub nsw i32 %len.014, %conv7
  %12 = load ptr, ptr %listener_.i, align 8
  %vtable.i10 = load ptr, ptr %12, align 8
  %vfn.i11 = getelementptr inbounds i8, ptr %vtable.i10, i64 24
  %13 = load ptr, ptr %vfn.i11, align 8
  call void %13(ptr noundef nonnull align 8 dereferenceable(24) %12, i64 noundef %conv, ptr noundef nonnull align 8 dereferenceable(16) %buf) #22
  %cmp.not = icmp eq i32 %sub, 0
  br i1 %cmp.not, label %while.end, label %while.body, !llvm.loop !39

while.end:                                        ; preds = %while.body, %while.body.us, %entry
  ret i32 0
}